; Function Attrs: mustprogress uwtable
define hidden noundef i32 @_ZN4cvc58internal4expr12TermCanonize12getTypeClassENS0_12NodeTemplateILb0EEE(ptr noundef nonnull readonly align 8 captures(none) dereferenceable(216) %0, ptr noundef readonly captures(none) %1) local_unnamed_addr #4 align 2 personality ptr @__gxx_personality_v0 {
  %3 = alloca %"class.cvc5::internal::NodeTemplate.36", align 8
  %4 = load ptr, ptr %0, align 8, !tbaa !3
  %.not = icmp eq ptr %4, null
  br i1 %.not, label %.thread, label %5

5:                                                ; preds = %2
  %6 = load ptr, ptr %1, align 8, !tbaa !73
  store ptr %6, ptr %3, align 8, !tbaa !73
  %7 = load ptr, ptr %4, align 8, !tbaa !83
  %8 = getelementptr inbounds nuw i8, ptr %7, i64 16
  %9 = load ptr, ptr %8, align 8
  %10 = call noundef i32 %9(ptr noundef nonnull align 8 dereferenceable(8) %4, ptr noundef nonnull %3)
  br label %.thread

.thread:                                          ; preds = %5, %2
  %11 = phi i32 [ %10, %5 ], [ 0, %2 ]
  ret i32 %11
}